target datalayout = "e-m:e-p270:32:32-p271:32:32-p272:64:64-i64:64-i128:128-f80:128-n8:16:32:64-S128"
target triple = "x86_64-pc-linux-gnu"

%struct.persist_msg_t = type { ptr, ptr, i16 }
%struct.dbd_rec_msg_t = type { ptr }
%struct.slurmdb_reservation_rec_t = type { ptr, ptr, ptr, i64, i32, ptr, ptr, ptr, i64, i64, i64, i64, ptr, double, ptr }

@.str.2 = private unnamed_addr constant [33 x i8] c"No reservation was given to add.\00", align 1
@.str.3 = private unnamed_addr constant [38 x i8] c"An id is needed to add a reservation.\00", align 1
@.str.4 = private unnamed_addr constant [45 x i8] c"A start time is needed to add a reservation.\00", align 1
@.str.5 = private unnamed_addr constant [47 x i8] c"A cluster name is needed to add a reservation.\00", align 1

; Function Attrs: nounwind uwtable
define dso_local i32 @acct_storage_p_add_reservation(ptr noundef %0, ptr noundef %1) #0 {
  %3 = alloca i32, align 4
  %4 = alloca ptr, align 8
  %5 = alloca ptr, align 8
  %6 = alloca %struct.persist_msg_t, align 8
  %7 = alloca %struct.dbd_rec_msg_t, align 8
  %8 = alloca i32, align 4
  %9 = alloca i32, align 4
  store ptr %0, ptr %4, align 8
  store ptr %1, ptr %5, align 8
  call void @llvm.lifetime.start.p0(i64 24, ptr %6) #9
  call void @llvm.memset.p0.i64(ptr align 8 %6, i8 0, i64 24, i1 false)
  call void @llvm.lifetime.start.p0(i64 8, ptr %7) #9
  call void @llvm.lifetime.start.p0(i64 4, ptr %8) #9
  %10 = load ptr, ptr %5, align 8
  %11 = icmp ne ptr %10, null
  br i1 %11, label %14, label %12

12:                                               ; preds = %2
  %13 = call i32 (ptr, ...) @slurm_error(ptr noundef @.str.2)
  store i32 -1, ptr %3, align 4
  store i32 1, ptr %9, align 4
  br label %51

14:                                               ; preds = %2
  %15 = load ptr, ptr %5, align 8
  %16 = getelementptr inbounds nuw %struct.slurmdb_reservation_rec_t, ptr %15, i32 0, i32 4
  %17 = load i32, ptr %16, align 8
  %18 = icmp ne i32 %17, 0
  br i1 %18, label %21, label %19

19:                                               ; preds = %14
  %20 = call i32 (ptr, ...) @slurm_error(ptr noundef @.str.3)
  store i32 -1, ptr %3, align 4
  store i32 1, ptr %9, align 4
  br label %51

21:                                               ; preds = %14
  %22 = load ptr, ptr %5, align 8
  %23 = getelementptr inbounds nuw %struct.slurmdb_reservation_rec_t, ptr %22, i32 0, i32 10
  %24 = load i64, ptr %23, align 8
  %25 = icmp ne i64 %24, 0
  br i1 %25, label %28, label %26

26:                                               ; preds = %21
  %27 = call i32 (ptr, ...) @slurm_error(ptr noundef @.str.4)
  store i32 -1, ptr %3, align 4
  store i32 1, ptr %9, align 4
  br label %51

28:                                               ; preds = %21
  %29 = load ptr, ptr %5, align 8
  %30 = getelementptr inbounds nuw %struct.slurmdb_reservation_rec_t, ptr %29, i32 0, i32 1
  %31 = load ptr, ptr %30, align 8
  %32 = icmp ne ptr %31, null
  br i1 %32, label %33, label %40

33:                                               ; preds = %28
  %34 = load ptr, ptr %5, align 8
  %35 = getelementptr inbounds nuw %struct.slurmdb_reservation_rec_t, ptr %34, i32 0, i32 1
  %36 = load ptr, ptr %35, align 8
  %37 = getelementptr inbounds i8, ptr %36, i64 0
  %38 = load i8, ptr %37, align 1
  %39 = icmp ne i8 %38, 0
  br i1 %39, label %42, label %40

40:                                               ; preds = %33, %28
  %41 = call i32 (ptr, ...) @slurm_error(ptr noundef @.str.5)
  store i32 -1, ptr %3, align 4
  store i32 1, ptr %9, align 4
  br label %51

42:                                               ; preds = %33
  call void @llvm.memset.p0.i64(ptr align 8 %7, i8 0, i64 8, i1 false)
  %43 = load ptr, ptr %5, align 8
  %44 = getelementptr inbounds nuw %struct.dbd_rec_msg_t, ptr %7, i32 0, i32 0
  store ptr %43, ptr %44, align 8
  %45 = getelementptr inbounds nuw %struct.persist_msg_t, ptr %6, i32 0, i32 2
  store i16 1461, ptr %45, align 8
  %46 = load ptr, ptr %4, align 8
  %47 = getelementptr inbounds nuw %struct.persist_msg_t, ptr %6, i32 0, i32 0
  store ptr %46, ptr %47, align 8
  %48 = getelementptr inbounds nuw %struct.persist_msg_t, ptr %6, i32 0, i32 1
  store ptr %7, ptr %48, align 8
  %49 = call i32 @slurmdbd_agent_send(i16 noundef zeroext 11008, ptr noundef %6)
  store i32 %49, ptr %8, align 4
  %50 = load i32, ptr %8, align 4
  store i32 %50, ptr %3, align 4
  store i32 1, ptr %9, align 4
  br label %51

51:                                               ; preds = %42, %40, %26, %19, %12
  call void @llvm.lifetime.end.p0(i64 4, ptr %8) #9
  call void @llvm.lifetime.end.p0(i64 8, ptr %7) #9
  call void @llvm.lifetime.end.p0(i64 24, ptr %6) #9
  %52 = load i32, ptr %3, align 4
  ret i32 %52
}